; ModuleID = '6/4092.c'
source_filename = "6/4092.c"
target datalayout = "e-m:e-p270:32:32-p271:32:32-p272:64:64-i64:64-f80:128-n8:16:32:64-S128"
target triple = "x86_64-pc-linux-gnu"

@.str = private unnamed_addr constant [4 x i8] c"%d\0A\00", align 1
@.str.1 = private unnamed_addr constant [6 x i8] c"%d %d\00", align 1
@.str.2 = private unnamed_addr constant [3 x i8] c"%d\00", align 1

; Function Attrs: noinline nounwind uwtable
define dso_local i32 @main() #0 {
  %1 = alloca i32, align 4
  %2 = alloca i32, align 4
  %3 = alloca i32, align 4
  %4 = alloca i32, align 4
  %5 = alloca i32, align 4
  %6 = alloca [100 x [100 x i32]], align 16
  %7 = alloca i32, align 4
  %8 = alloca i32, align 4
  %9 = alloca i32, align 4
  %10 = alloca i32, align 4
  %11 = alloca i32, align 4
  %12 = alloca i32, align 4
  %13 = alloca i32, align 4
  %14 = alloca i32, align 4
  store i32 0, i32* %1, align 4
  %15 = call i32 (i8*, ...) @__isoc99_scanf(i8* getelementptr inbounds ([4 x i8], [4 x i8]* @.str, i64 0, i64 0), i32* %2)
  store i32 0, i32* %5, align 4
  br label %16

16:                                               ; preds = %136, %0
  %17 = load i32, i32* %5, align 4
  %18 = load i32, i32* %2, align 4
  %19 = icmp slt i32 %17, %18
  br i1 %19, label %20, label %139

20:                                               ; preds = %16
  store i32 0, i32* %10, align 4
  store i32 0, i32* %11, align 4
  store i32 0, i32* %12, align 4
  store i32 0, i32* %13, align 4
  store i32 0, i32* %14, align 4
  %21 = call i32 (i8*, ...) @__isoc99_scanf(i8* getelementptr inbounds ([6 x i8], [6 x i8]* @.str.1, i64 0, i64 0), i32* %3, i32* %4)
  store i32 0, i32* %7, align 4
  br label %22

22:                                               ; preds = %43, %20
  %23 = load i32, i32* %7, align 4
  %24 = load i32, i32* %3, align 4
  %25 = icmp slt i32 %23, %24
  br i1 %25, label %26, label %46

26:                                               ; preds = %22
  store i32 0, i32* %8, align 4
  br label %27

27:                                               ; preds = %39, %26
  %28 = load i32, i32* %8, align 4
  %29 = load i32, i32* %4, align 4
  %30 = icmp slt i32 %28, %29
  br i1 %30, label %31, label %42

31:                                               ; preds = %27
  %32 = load i32, i32* %7, align 4
  %33 = sext i32 %32 to i64
  %34 = getelementptr inbounds [100 x [100 x i32]], [100 x [100 x i32]]* %6, i64 0, i64 %33
  %35 = load i32, i32* %8, align 4
  %36 = sext i32 %35 to i64
  %37 = getelementptr inbounds [100 x i32], [100 x i32]* %34, i64 0, i64 %36
  %38 = call i32 (i8*, ...) @__isoc99_scanf(i8* getelementptr inbounds ([3 x i8], [3 x i8]* @.str.2, i64 0, i64 0), i32* %37)
  br label %39

39:                                               ; preds = %31
  %40 = load i32, i32* %8, align 4
  %41 = add nsw i32 %40, 1
  store i32 %41, i32* %8, align 4
  br label %27

42:                                               ; preds = %27
  br label %43

43:                                               ; preds = %42
  %44 = load i32, i32* %7, align 4
  %45 = add nsw i32 %44, 1
  store i32 %45, i32* %7, align 4
  br label %22

46:                                               ; preds = %22
  store i32 0, i32* %9, align 4
  br label %47

47:                                               ; preds = %69, %46
  %48 = load i32, i32* %9, align 4
  %49 = load i32, i32* %4, align 4
  %50 = icmp slt i32 %48, %49
  br i1 %50, label %51, label %72

51:                                               ; preds = %47
  %52 = getelementptr inbounds [100 x [100 x i32]], [100 x [100 x i32]]* %6, i64 0, i64 0
  %53 = load i32, i32* %9, align 4
  %54 = sext i32 %53 to i64
  %55 = getelementptr inbounds [100 x i32], [100 x i32]* %52, i64 0, i64 %54
  %56 = load i32, i32* %55, align 4
  %57 = load i32, i32* %10, align 4
  %58 = add nsw i32 %57, %56
  store i32 %58, i32* %10, align 4
  %59 = load i32, i32* %3, align 4
  %60 = sub nsw i32 %59, 1
  %61 = sext i32 %60 to i64
  %62 = getelementptr inbounds [100 x [100 x i32]], [100 x [100 x i32]]* %6, i64 0, i64 %61
  %63 = load i32, i32* %9, align 4
  %64 = sext i32 %63 to i64
  %65 = getelementptr inbounds [100 x i32], [100 x i32]* %62, i64 0, i64 %64
  %66 = load i32, i32* %65, align 4
  %67 = load i32, i32* %11, align 4
  %68 = add nsw i32 %67, %66
  store i32 %68, i32* %11, align 4
  br label %69

69:                                               ; preds = %51
  %70 = load i32, i32* %9, align 4
  %71 = add nsw i32 %70, 1
  store i32 %71, i32* %9, align 4
  br label %47

72:                                               ; preds = %47
  store i32 0, i32* %9, align 4
  store i32 0, i32* %9, align 4
  br label %73

73:                                               ; preds = %95, %72
  %74 = load i32, i32* %9, align 4
  %75 = load i32, i32* %3, align 4
  %76 = icmp slt i32 %74, %75
  br i1 %76, label %77, label %98

77:                                               ; preds = %73
  %78 = load i32, i32* %9, align 4
  %79 = sext i32 %78 to i64
  %80 = getelementptr inbounds [100 x [100 x i32]], [100 x [100 x i32]]* %6, i64 0, i64 %79
  %81 = getelementptr inbounds [100 x i32], [100 x i32]* %80, i64 0, i64 0
  %82 = load i32, i32* %81, align 16
  %83 = load i32, i32* %12, align 4
  %84 = add nsw i32 %83, %82
  store i32 %84, i32* %12, align 4
  %85 = load i32, i32* %9, align 4
  %86 = sext i32 %85 to i64
  %87 = getelementptr inbounds [100 x [100 x i32]], [100 x [100 x i32]]* %6, i64 0, i64 %86
  %88 = load i32, i32* %4, align 4
  %89 = sub nsw i32 %88, 1
  %90 = sext i32 %89 to i64
  %91 = getelementptr inbounds [100 x i32], [100 x i32]* %87, i64 0, i64 %90
  %92 = load i32, i32* %91, align 4
  %93 = load i32, i32* %13, align 4
  %94 = add nsw i32 %93, %92
  store i32 %94, i32* %13, align 4
  br label %95

95:                                               ; preds = %77
  %96 = load i32, i32* %9, align 4
  %97 = add nsw i32 %96, 1
  store i32 %97, i32* %9, align 4
  br label %73

98:                                               ; preds = %73
  %99 = load i32, i32* %10, align 4
  %100 = load i32, i32* %11, align 4
  %101 = add nsw i32 %99, %100
  %102 = load i32, i32* %12, align 4
  %103 = add nsw i32 %101, %102
  %104 = load i32, i32* %13, align 4
  %105 = add nsw i32 %103, %104
  %106 = getelementptr inbounds [100 x [100 x i32]], [100 x [100 x i32]]* %6, i64 0, i64 0
  %107 = getelementptr inbounds [100 x i32], [100 x i32]* %106, i64 0, i64 0
  %108 = load i32, i32* %107, align 16
  %109 = sub nsw i32 %105, %108
  %110 = load i32, i32* %3, align 4
  %111 = sub nsw i32 %110, 1
  %112 = sext i32 %111 to i64
  %113 = getelementptr inbounds [100 x [100 x i32]], [100 x [100 x i32]]* %6, i64 0, i64 %112
  %114 = load i32, i32* %4, align 4
  %115 = sub nsw i32 %114, 1
  %116 = sext i32 %115 to i64
  %117 = getelementptr inbounds [100 x i32], [100 x i32]* %113, i64 0, i64 %116
  %118 = load i32, i32* %117, align 4
  %119 = sub nsw i32 %109, %118
  %120 = getelementptr inbounds [100 x [100 x i32]], [100 x [100 x i32]]* %6, i64 0, i64 0
  %121 = load i32, i32* %4, align 4
  %122 = sub nsw i32 %121, 1
  %123 = sext i32 %122 to i64
  %124 = getelementptr inbounds [100 x i32], [100 x i32]* %120, i64 0, i64 %123
  %125 = load i32, i32* %124, align 4
  %126 = sub nsw i32 %119, %125
  %127 = load i32, i32* %3, align 4
  %128 = sub nsw i32 %127, 1
  %129 = sext i32 %128 to i64
  %130 = getelementptr inbounds [100 x [100 x i32]], [100 x [100 x i32]]* %6, i64 0, i64 %129
  %131 = getelementptr inbounds [100 x i32], [100 x i32]* %130, i64 0, i64 0
  %132 = load i32, i32* %131, align 16
  %133 = sub nsw i32 %126, %132
  store i32 %133, i32* %14, align 4
  %134 = load i32, i32* %14, align 4
  %135 = call i32 (i8*, ...) @printf(i8* getelementptr inbounds ([4 x i8], [4 x i8]* @.str, i64 0, i64 0), i32 %134)
  br label %136

136:                                              ; preds = %98
  %137 = load i32, i32* %5, align 4
  %138 = add nsw i32 %137, 1
  store i32 %138, i32* %5, align 4
  br label %16

139:                                              ; preds = %16
  ret i32 0
}

declare dso_local i32 @__isoc99_scanf(i8*, ...) #1

declare dso_local i32 @printf(i8*, ...) #1


!llvm.module.flags = !{!0}
!llvm.ident = !{!1}

!0 = !{i32 1, !"wchar_size", i32 4}
!1 = !{!"clang version 10.0.0-4ubuntu1 "}
